; Function Attrs: mustprogress nounwind uwtable
define dso_local void @_ZN4llvm15ReassociatePass20canonicalizeOperandsEPNS_11InstructionE(ptr noundef nonnull align 8 dereferenceable(585) %0, ptr noundef %1) local_unnamed_addr #0 align 2 {
  %3 = getelementptr inbounds nuw i8, ptr %1, i64 4
  %4 = load i32, ptr %3, align 4
  %5 = and i32 %4, 1073741824
  %.not.i.i = icmp eq i32 %5, 0
  br i1 %.not.i.i, label %9, label %6

6:                                                ; preds = %2
  %7 = getelementptr inbounds i8, ptr %1, i64 -8
  %8 = load ptr, ptr %7, align 8
  br label %_ZNK4llvm4User10getOperandEj.exit5

9:                                                ; preds = %2
  %10 = and i32 %4, 134217727
  %11 = zext nneg i32 %10 to i64
  %12 = sub nsw i64 0, %11
  %13 = getelementptr inbounds %"class.llvm::Use", ptr %1, i64 %12
  br label %_ZNK4llvm4User10getOperandEj.exit5

_ZNK4llvm4User10getOperandEj.exit5:               ; preds = %6, %9
  %.in = phi ptr [ %8, %6 ], [ %13, %9 ]
  %14 = load ptr, ptr %.in, align 8
  %15 = getelementptr inbounds nuw i8, ptr %.in, i64 32
  %16 = load ptr, ptr %15, align 8
  %17 = icmp eq ptr %14, %16
  br i1 %17, label %30, label %18

18:                                               ; preds = %_ZNK4llvm4User10getOperandEj.exit5
  %19 = load i8, ptr %16, align 8
  %20 = icmp ult i8 %19, 22
  br i1 %20, label %30, label %21

21:                                               ; preds = %18
  %22 = load i8, ptr %14, align 8
  %23 = icmp ult i8 %22, 22
  br i1 %23, label %28, label %24

24:                                               ; preds = %21
  %25 = tail call noundef i32 @_ZN4llvm15ReassociatePass7getRankEPNS_5ValueE(ptr noundef nonnull align 8 dereferenceable(585) %0, ptr noundef nonnull %16)
  %26 = tail call noundef i32 @_ZN4llvm15ReassociatePass7getRankEPNS_5ValueE(ptr noundef nonnull align 8 dereferenceable(585) %0, ptr noundef nonnull %14)
  %27 = icmp ult i32 %25, %26
  br i1 %27, label %28, label %30

28:                                               ; preds = %24, %21
  %29 = tail call noundef zeroext i1 @_ZN4llvm14BinaryOperator12swapOperandsEv(ptr noundef nonnull align 8 dereferenceable(72) %1) #23
  br label %30

30:                                               ; preds = %_ZNK4llvm4User10getOperandEj.exit5, %18, %28, %24
  ret void
}